; Function Attrs: mustprogress nofree norecurse nosync nounwind willreturn memory(argmem: read) uwtable
define ptr @lv_indev_get_group(ptr noundef readonly captures(address_is_null) %0) local_unnamed_addr #6 {
  %2 = icmp eq ptr %0, null
  br i1 %2, label %6, label %3

3:                                                ; preds = %1
  %4 = getelementptr inbounds nuw i8, ptr %0, i64 248
  %5 = load ptr, ptr %4, align 8, !tbaa !108
  br label %6

6:                                                ; preds = %1, %3
  %.0 = phi ptr [ %5, %3 ], [ null, %1 ]
  ret ptr %.0
}